; Function Attrs: mustprogress nofree norecurse nosync nounwind willreturn memory(argmem: readwrite) uwtable
define internal range(i32 -1, 60) i32 @element6(ptr noundef captures(none) %0, i32 noundef %1, ptr readnone captures(none) %2, ptr readnone captures(none) %3, ptr readnone captures(none) %4) #2 {
  switch i32 %1, label %14 [
    i32 15, label %common.exit
    i32 23, label %6
    i32 18, label %10
    i32 41, label %10
    i32 30, label %11
    i32 31, label %12
    i32 32, label %13
  ]

6:                                                ; preds = %5
  %7 = getelementptr inbounds nuw i8, ptr %0, i64 8
  %8 = load i32, ptr %7, align 8, !tbaa !20
  %9 = add i32 %8, 1
  store i32 %9, ptr %7, align 8, !tbaa !20
  br label %common.exit

10:                                               ; preds = %5, %5
  store ptr @element7, ptr %0, align 8, !tbaa !3
  br label %common.exit

11:                                               ; preds = %5
  store ptr @element7, ptr %0, align 8, !tbaa !3
  br label %common.exit

12:                                               ; preds = %5
  store ptr @element7, ptr %0, align 8, !tbaa !3
  br label %common.exit

13:                                               ; preds = %5
  store ptr @element7, ptr %0, align 8, !tbaa !3
  br label %common.exit

14:                                               ; preds = %5
  %15 = getelementptr inbounds nuw i8, ptr %0, i64 20
  %16 = load i32, ptr %15, align 4, !tbaa !9
  %17 = icmp eq i32 %16, 0
  %18 = icmp eq i32 %1, 28
  %or.cond.i = and i1 %18, %17
  br i1 %or.cond.i, label %common.exit, label %19

19:                                               ; preds = %14
  store ptr @error, ptr %0, align 8, !tbaa !3
  br label %common.exit

common.exit:                                      ; preds = %19, %14, %5, %13, %12, %11, %10, %6
  %.0 = phi i32 [ 54, %13 ], [ 52, %12 ], [ 53, %11 ], [ 51, %10 ], [ 44, %6 ], [ 39, %5 ], [ -1, %19 ], [ 59, %14 ]
  ret i32 %.0
}